; Function Attrs: inlinehint mustprogress uwtable
define internal noalias noundef nonnull ptr @_ZZN8pybind116detail16type_caster_baseIN12_GLOBAL__N_15I801CEE21make_copy_constructorIS3_vEEDTcmnw_T_piclsr3stdE7declvalIKS6_EEEtlPFPvPKvEEEPS7_ENUlSA_E_8__invokeESA_(ptr noundef readonly captures(none) %0) #13 align 2 {
  %2 = tail call noalias noundef nonnull dereferenceable(32) ptr @_Znwm(i64 noundef 32) #40
  %3 = getelementptr i8, ptr %0, i64 8
  %.val.i = load i32, ptr %3, align 8, !tbaa !2630
  %4 = getelementptr i8, ptr %0, i64 24
  %.val1.i = load i32, ptr %4, align 8, !tbaa !2660
  %5 = getelementptr inbounds nuw i8, ptr %2, i64 8
  store i32 %.val.i, ptr %5, align 8, !tbaa !2630
  %6 = getelementptr inbounds nuw i8, ptr %2, i64 16
  %7 = getelementptr inbounds nuw i8, ptr %2, i64 24
  store i32 %.val1.i, ptr %7, align 8, !tbaa !2660
  store ptr getelementptr inbounds nuw inrange(-16, 16) (i8, ptr @_ZTVN12_GLOBAL__N_15I801CE, i64 16), ptr %2, align 8, !tbaa !1508
  store ptr getelementptr inbounds nuw inrange(-16, 16) (i8, ptr @_ZTVN12_GLOBAL__N_15I801CE, i64 48), ptr %6, align 8, !tbaa !1508
  ret ptr %2
}